target datalayout = "e-m:e-p270:32:32-p271:32:32-p272:64:64-i64:64-i128:128-f80:128-n8:16:32:64-S128"
target triple = "x86_64-pc-linux-gnu"

%"struct.duckdb_libpgquery::yyguts_t" = type { ptr, ptr, ptr, i64, i64, ptr, i8, i64, i64, ptr, i32, i32, i32, i32, i32, ptr, i32, ptr, i32, i32, ptr, i32, i32, ptr, ptr }
%"struct.duckdb_libpgquery::yy_buffer_state" = type { ptr, ptr, ptr, i64, i64, i32, i32, i32, i32, i32, i32, i32 }

@.str.27 = private unnamed_addr constant [44 x i8] c"out of dynamic memory in yy_create_buffer()\00", align 1

; Function Attrs: mustprogress nounwind uwtable
define internal void @_ZN17duckdb_libpgqueryL25core_yy_load_buffer_stateEPv(ptr noundef %0) #2 {
  %2 = alloca ptr, align 8
  %3 = alloca ptr, align 8
  store ptr %0, ptr %2, align 8, !tbaa !10
  call void @llvm.lifetime.start.p0(i64 8, ptr %3) #11
  %4 = load ptr, ptr %2, align 8, !tbaa !10
  store ptr %4, ptr %3, align 8, !tbaa !11
  %5 = load ptr, ptr %3, align 8, !tbaa !11
  %6 = getelementptr inbounds nuw %"struct.duckdb_libpgquery::yyguts_t", ptr %5, i32 0, i32 5
  %7 = load ptr, ptr %6, align 8, !tbaa !24
  %8 = load ptr, ptr %3, align 8, !tbaa !11
  %9 = getelementptr inbounds nuw %"struct.duckdb_libpgquery::yyguts_t", ptr %8, i32 0, i32 3
  %10 = load i64, ptr %9, align 8, !tbaa !25
  %11 = getelementptr inbounds nuw ptr, ptr %7, i64 %10
  %12 = load ptr, ptr %11, align 8, !tbaa !26
  %13 = getelementptr inbounds nuw %"struct.duckdb_libpgquery::yy_buffer_state", ptr %12, i32 0, i32 4
  %14 = load i64, ptr %13, align 8, !tbaa !68
  %15 = load ptr, ptr %3, align 8, !tbaa !11
  %16 = getelementptr inbounds nuw %"struct.duckdb_libpgquery::yyguts_t", ptr %15, i32 0, i32 7
  store i64 %14, ptr %16, align 8, !tbaa !69
  %17 = load ptr, ptr %3, align 8, !tbaa !11
  %18 = getelementptr inbounds nuw %"struct.duckdb_libpgquery::yyguts_t", ptr %17, i32 0, i32 5
  %19 = load ptr, ptr %18, align 8, !tbaa !24
  %20 = load ptr, ptr %3, align 8, !tbaa !11
  %21 = getelementptr inbounds nuw %"struct.duckdb_libpgquery::yyguts_t", ptr %20, i32 0, i32 3
  %22 = load i64, ptr %21, align 8, !tbaa !25
  %23 = getelementptr inbounds nuw ptr, ptr %19, i64 %22
  %24 = load ptr, ptr %23, align 8, !tbaa !26
  %25 = getelementptr inbounds nuw %"struct.duckdb_libpgquery::yy_buffer_state", ptr %24, i32 0, i32 2
  %26 = load ptr, ptr %25, align 8, !tbaa !79
  %27 = load ptr, ptr %3, align 8, !tbaa !11
  %28 = getelementptr inbounds nuw %"struct.duckdb_libpgquery::yyguts_t", ptr %27, i32 0, i32 9
  store ptr %26, ptr %28, align 8, !tbaa !29
  %29 = load ptr, ptr %3, align 8, !tbaa !11
  %30 = getelementptr inbounds nuw %"struct.duckdb_libpgquery::yyguts_t", ptr %29, i32 0, i32 20
  store ptr %26, ptr %30, align 8, !tbaa !41
  %31 = load ptr, ptr %3, align 8, !tbaa !11
  %32 = getelementptr inbounds nuw %"struct.duckdb_libpgquery::yyguts_t", ptr %31, i32 0, i32 5
  %33 = load ptr, ptr %32, align 8, !tbaa !24
  %34 = load ptr, ptr %3, align 8, !tbaa !11
  %35 = getelementptr inbounds nuw %"struct.duckdb_libpgquery::yyguts_t", ptr %34, i32 0, i32 3
  %36 = load i64, ptr %35, align 8, !tbaa !25
  %37 = getelementptr inbounds nuw ptr, ptr %33, i64 %36
  %38 = load ptr, ptr %37, align 8, !tbaa !26
  %39 = getelementptr inbounds nuw %"struct.duckdb_libpgquery::yy_buffer_state", ptr %38, i32 0, i32 0
  %40 = load ptr, ptr %39, align 8, !tbaa !70
  %41 = load ptr, ptr %3, align 8, !tbaa !11
  %42 = getelementptr inbounds nuw %"struct.duckdb_libpgquery::yyguts_t", ptr %41, i32 0, i32 1
  store ptr %40, ptr %42, align 8, !tbaa !28
  %43 = load ptr, ptr %3, align 8, !tbaa !11
  %44 = getelementptr inbounds nuw %"struct.duckdb_libpgquery::yyguts_t", ptr %43, i32 0, i32 9
  %45 = load ptr, ptr %44, align 8, !tbaa !29
  %46 = load i8, ptr %45, align 1, !tbaa !32
  %47 = load ptr, ptr %3, align 8, !tbaa !11
  %48 = getelementptr inbounds nuw %"struct.duckdb_libpgquery::yyguts_t", ptr %47, i32 0, i32 6
  store i8 %46, ptr %48, align 8, !tbaa !31
  call void @llvm.lifetime.end.p0(i64 8, ptr %3) #11
  ret void
}

; Function Attrs: mustprogress uwtable
define hidden void @_ZN17duckdb_libpgquery20core_yy_flush_bufferEPNS_15yy_buffer_stateEPv(ptr noundef %0, ptr noundef %1) #0 {
  %3 = alloca ptr, align 8
  %4 = alloca ptr, align 8
  %5 = alloca ptr, align 8
  %6 = alloca i32, align 4
  store ptr %0, ptr %3, align 8, !tbaa !26
  store ptr %1, ptr %4, align 8, !tbaa !10
  call void @llvm.lifetime.start.p0(i64 8, ptr %5) #11
  %7 = load ptr, ptr %4, align 8, !tbaa !10
  store ptr %7, ptr %5, align 8, !tbaa !11
  %8 = load ptr, ptr %3, align 8, !tbaa !26
  %9 = icmp ne ptr %8, null
  br i1 %9, label %11, label %10

10:                                               ; preds = %2
  store i32 1, ptr %6, align 4
  br label %53

11:                                               ; preds = %2
  %12 = load ptr, ptr %3, align 8, !tbaa !26
  %13 = getelementptr inbounds nuw %"struct.duckdb_libpgquery::yy_buffer_state", ptr %12, i32 0, i32 4
  store i64 0, ptr %13, align 8, !tbaa !68
  %14 = load ptr, ptr %3, align 8, !tbaa !26
  %15 = getelementptr inbounds nuw %"struct.duckdb_libpgquery::yy_buffer_state", ptr %14, i32 0, i32 1
  %16 = load ptr, ptr %15, align 8, !tbaa !71
  %17 = getelementptr inbounds i8, ptr %16, i64 0
  store i8 0, ptr %17, align 1, !tbaa !32
  %18 = load ptr, ptr %3, align 8, !tbaa !26
  %19 = getelementptr inbounds nuw %"struct.duckdb_libpgquery::yy_buffer_state", ptr %18, i32 0, i32 1
  %20 = load ptr, ptr %19, align 8, !tbaa !71
  %21 = getelementptr inbounds i8, ptr %20, i64 1
  store i8 0, ptr %21, align 1, !tbaa !32
  %22 = load ptr, ptr %3, align 8, !tbaa !26
  %23 = getelementptr inbounds nuw %"struct.duckdb_libpgquery::yy_buffer_state", ptr %22, i32 0, i32 1
  %24 = load ptr, ptr %23, align 8, !tbaa !71
  %25 = getelementptr inbounds i8, ptr %24, i64 0
  %26 = load ptr, ptr %3, align 8, !tbaa !26
  %27 = getelementptr inbounds nuw %"struct.duckdb_libpgquery::yy_buffer_state", ptr %26, i32 0, i32 2
  store ptr %25, ptr %27, align 8, !tbaa !79
  %28 = load ptr, ptr %3, align 8, !tbaa !26
  %29 = getelementptr inbounds nuw %"struct.duckdb_libpgquery::yy_buffer_state", ptr %28, i32 0, i32 7
  store i32 1, ptr %29, align 8, !tbaa !97
  %30 = load ptr, ptr %3, align 8, !tbaa !26
  %31 = getelementptr inbounds nuw %"struct.duckdb_libpgquery::yy_buffer_state", ptr %30, i32 0, i32 11
  store i32 0, ptr %31, align 8, !tbaa !66
  %32 = load ptr, ptr %3, align 8, !tbaa !26
  %33 = load ptr, ptr %5, align 8, !tbaa !11
  %34 = getelementptr inbounds nuw %"struct.duckdb_libpgquery::yyguts_t", ptr %33, i32 0, i32 5
  %35 = load ptr, ptr %34, align 8, !tbaa !24
  %36 = icmp ne ptr %35, null
  br i1 %36, label %37, label %46

37:                                               ; preds = %11
  %38 = load ptr, ptr %5, align 8, !tbaa !11
  %39 = getelementptr inbounds nuw %"struct.duckdb_libpgquery::yyguts_t", ptr %38, i32 0, i32 5
  %40 = load ptr, ptr %39, align 8, !tbaa !24
  %41 = load ptr, ptr %5, align 8, !tbaa !11
  %42 = getelementptr inbounds nuw %"struct.duckdb_libpgquery::yyguts_t", ptr %41, i32 0, i32 3
  %43 = load i64, ptr %42, align 8, !tbaa !25
  %44 = getelementptr inbounds nuw ptr, ptr %40, i64 %43
  %45 = load ptr, ptr %44, align 8, !tbaa !26
  br label %47

46:                                               ; preds = %11
  br label %47

47:                                               ; preds = %46, %37
  %48 = phi ptr [ %45, %37 ], [ null, %46 ]
  %49 = icmp eq ptr %32, %48
  br i1 %49, label %50, label %52

50:                                               ; preds = %47
  %51 = load ptr, ptr %4, align 8, !tbaa !10
  call void @_ZN17duckdb_libpgqueryL25core_yy_load_buffer_stateEPv(ptr noundef %51)
  br label %52

52:                                               ; preds = %50, %47
  store i32 0, ptr %6, align 4
  br label %53

53:                                               ; preds = %52, %10
  call void @llvm.lifetime.end.p0(i64 8, ptr %5) #11
  %54 = load i32, ptr %6, align 4
  switch i32 %54, label %56 [
    i32 0, label %55
    i32 1, label %55
  ]

55:                                               ; preds = %53, %53
  ret void

56:                                               ; preds = %53
  unreachable
}

; Function Attrs: mustprogress uwtable
define internal void @_ZN17duckdb_libpgqueryL19core_yy_init_bufferEPNS_15yy_buffer_stateEP8_IO_FILEPv(ptr noundef %0, ptr noundef %1, ptr noundef %2) #0 {
  %4 = alloca ptr, align 8
  %5 = alloca ptr, align 8
  %6 = alloca ptr, align 8
  %7 = alloca i32, align 4
  %8 = alloca ptr, align 8
  store ptr %0, ptr %4, align 8, !tbaa !26
  store ptr %1, ptr %5, align 8, !tbaa !76
  store ptr %2, ptr %6, align 8, !tbaa !10
  call void @llvm.lifetime.start.p0(i64 4, ptr %7) #11
  %9 = call ptr @__errno_location() #14
  %10 = load i32, ptr %9, align 4, !tbaa !33
  store i32 %10, ptr %7, align 4, !tbaa !33
  call void @llvm.lifetime.start.p0(i64 8, ptr %8) #11
  %11 = load ptr, ptr %6, align 8, !tbaa !10
  store ptr %11, ptr %8, align 8, !tbaa !11
  %12 = load ptr, ptr %4, align 8, !tbaa !26
  %13 = load ptr, ptr %6, align 8, !tbaa !10
  call void @_ZN17duckdb_libpgquery20core_yy_flush_bufferEPNS_15yy_buffer_stateEPv(ptr noundef %12, ptr noundef %13)
  %14 = load ptr, ptr %5, align 8, !tbaa !76
  %15 = load ptr, ptr %4, align 8, !tbaa !26
  %16 = getelementptr inbounds nuw %"struct.duckdb_libpgquery::yy_buffer_state", ptr %15, i32 0, i32 0
  store ptr %14, ptr %16, align 8, !tbaa !70
  %17 = load ptr, ptr %4, align 8, !tbaa !26
  %18 = getelementptr inbounds nuw %"struct.duckdb_libpgquery::yy_buffer_state", ptr %17, i32 0, i32 10
  store i32 1, ptr %18, align 4, !tbaa !89
  %19 = load ptr, ptr %4, align 8, !tbaa !26
  %20 = load ptr, ptr %8, align 8, !tbaa !11
  %21 = getelementptr inbounds nuw %"struct.duckdb_libpgquery::yyguts_t", ptr %20, i32 0, i32 5
  %22 = load ptr, ptr %21, align 8, !tbaa !24
  %23 = icmp ne ptr %22, null
  br i1 %23, label %24, label %33

24:                                               ; preds = %3
  %25 = load ptr, ptr %8, align 8, !tbaa !11
  %26 = getelementptr inbounds nuw %"struct.duckdb_libpgquery::yyguts_t", ptr %25, i32 0, i32 5
  %27 = load ptr, ptr %26, align 8, !tbaa !24
  %28 = load ptr, ptr %8, align 8, !tbaa !11
  %29 = getelementptr inbounds nuw %"struct.duckdb_libpgquery::yyguts_t", ptr %28, i32 0, i32 3
  %30 = load i64, ptr %29, align 8, !tbaa !25
  %31 = getelementptr inbounds nuw ptr, ptr %27, i64 %30
  %32 = load ptr, ptr %31, align 8, !tbaa !26
  br label %34

33:                                               ; preds = %3
  br label %34

34:                                               ; preds = %33, %24
  %35 = phi ptr [ %32, %24 ], [ null, %33 ]
  %36 = icmp ne ptr %19, %35
  br i1 %36, label %37, label %42

37:                                               ; preds = %34
  %38 = load ptr, ptr %4, align 8, !tbaa !26
  %39 = getelementptr inbounds nuw %"struct.duckdb_libpgquery::yy_buffer_state", ptr %38, i32 0, i32 8
  store i32 1, ptr %39, align 4, !tbaa !95
  %40 = load ptr, ptr %4, align 8, !tbaa !26
  %41 = getelementptr inbounds nuw %"struct.duckdb_libpgquery::yy_buffer_state", ptr %40, i32 0, i32 9
  store i32 0, ptr %41, align 8, !tbaa !96
  br label %42

42:                                               ; preds = %37, %34
  %43 = load ptr, ptr %4, align 8, !tbaa !26
  %44 = getelementptr inbounds nuw %"struct.duckdb_libpgquery::yy_buffer_state", ptr %43, i32 0, i32 6
  store i32 0, ptr %44, align 4, !tbaa !92
  %45 = load i32, ptr %7, align 4, !tbaa !33
  %46 = call ptr @__errno_location() #14
  store i32 %45, ptr %46, align 4, !tbaa !33
  call void @llvm.lifetime.end.p0(i64 8, ptr %8) #11
  call void @llvm.lifetime.end.p0(i64 4, ptr %7) #11
  ret void
}

; Function Attrs: mustprogress uwtable
define hidden noundef ptr @_ZN17duckdb_libpgquery12core_yyallocEmPv(i64 noundef %0, ptr noundef %1) #0 {
  %3 = alloca i64, align 8
  %4 = alloca ptr, align 8
  store i64 %0, ptr %3, align 8, !tbaa !74
  store ptr %1, ptr %4, align 8, !tbaa !10
  %5 = load i64, ptr %3, align 8, !tbaa !74
  %6 = call noundef ptr @_ZN17duckdb_libpgquery6pallocEm(i64 noundef %5)
  ret ptr %6
}

; Function Attrs: mustprogress uwtable
define hidden noundef ptr @_ZN17duckdb_libpgquery21core_yy_create_bufferEP8_IO_FILEiPv(ptr noundef %0, i32 noundef %1, ptr noundef %2) #0 {
  %4 = alloca ptr, align 8
  %5 = alloca i32, align 4
  %6 = alloca ptr, align 8
  %7 = alloca ptr, align 8
  store ptr %0, ptr %4, align 8, !tbaa !76
  store i32 %1, ptr %5, align 4, !tbaa !33
  store ptr %2, ptr %6, align 8, !tbaa !10
  call void @llvm.lifetime.start.p0(i64 8, ptr %7) #11
  %8 = load ptr, ptr %6, align 8, !tbaa !10
  %9 = call noundef ptr @_ZN17duckdb_libpgquery12core_yyallocEmPv(i64 noundef 72, ptr noundef %8)
  store ptr %9, ptr %7, align 8, !tbaa !26
  %10 = load ptr, ptr %7, align 8, !tbaa !26
  %11 = icmp ne ptr %10, null
  br i1 %11, label %14, label %12

12:                                               ; preds = %3
  %13 = load ptr, ptr %6, align 8, !tbaa !10
  call void @_ZN17duckdb_libpgqueryL14yy_fatal_errorEPKcPv(ptr noundef @.str.27, ptr noundef %13) #13
  unreachable

14:                                               ; preds = %3
  %15 = load i32, ptr %5, align 4, !tbaa !33
  %16 = sext i32 %15 to i64
  %17 = load ptr, ptr %7, align 8, !tbaa !26
  %18 = getelementptr inbounds nuw %"struct.duckdb_libpgquery::yy_buffer_state", ptr %17, i32 0, i32 3
  store i64 %16, ptr %18, align 8, !tbaa !77
  %19 = load ptr, ptr %7, align 8, !tbaa !26
  %20 = getelementptr inbounds nuw %"struct.duckdb_libpgquery::yy_buffer_state", ptr %19, i32 0, i32 3
  %21 = load i64, ptr %20, align 8, !tbaa !77
  %22 = add i64 %21, 2
  %23 = load ptr, ptr %6, align 8, !tbaa !10
  %24 = call noundef ptr @_ZN17duckdb_libpgquery12core_yyallocEmPv(i64 noundef %22, ptr noundef %23)
  %25 = load ptr, ptr %7, align 8, !tbaa !26
  %26 = getelementptr inbounds nuw %"struct.duckdb_libpgquery::yy_buffer_state", ptr %25, i32 0, i32 1
  store ptr %24, ptr %26, align 8, !tbaa !71
  %27 = load ptr, ptr %7, align 8, !tbaa !26
  %28 = getelementptr inbounds nuw %"struct.duckdb_libpgquery::yy_buffer_state", ptr %27, i32 0, i32 1
  %29 = load ptr, ptr %28, align 8, !tbaa !71
  %30 = icmp ne ptr %29, null
  br i1 %30, label %33, label %31

31:                                               ; preds = %14
  %32 = load ptr, ptr %6, align 8, !tbaa !10
  call void @_ZN17duckdb_libpgqueryL14yy_fatal_errorEPKcPv(ptr noundef @.str.27, ptr noundef %32) #13
  unreachable

33:                                               ; preds = %14
  %34 = load ptr, ptr %7, align 8, !tbaa !26
  %35 = getelementptr inbounds nuw %"struct.duckdb_libpgquery::yy_buffer_state", ptr %34, i32 0, i32 5
  store i32 1, ptr %35, align 8, !tbaa !78
  %36 = load ptr, ptr %7, align 8, !tbaa !26
  %37 = load ptr, ptr %4, align 8, !tbaa !76
  %38 = load ptr, ptr %6, align 8, !tbaa !10
  call void @_ZN17duckdb_libpgqueryL19core_yy_init_bufferEPNS_15yy_buffer_stateEP8_IO_FILEPv(ptr noundef %36, ptr noundef %37, ptr noundef %38)
  %39 = load ptr, ptr %7, align 8, !tbaa !26
  call void @llvm.lifetime.end.p0(i64 8, ptr %7) #11
  ret ptr %39
}