; Function Attrs: mustprogress uwtable
define hidden noundef nonnull ptr @_ZN17duckdb_libpgquery21core_yy_create_bufferEP8_IO_FILEiPv(ptr noundef %0, i32 noundef %1, ptr noundef captures(none) %2) local_unnamed_addr #0 {
  %4 = tail call noundef ptr @_ZN17duckdb_libpgquery6pallocEm(i64 noundef 72)
  %.not = icmp eq ptr %4, null
  br i1 %.not, label %5, label %6

5:                                                ; preds = %3
  tail call fastcc void @_ZN17duckdb_libpgqueryL14yy_fatal_errorEPKcPv(ptr noundef nonnull @.str.27) #20
  unreachable

6:                                                ; preds = %3
  %7 = sext i32 %1 to i64
  %8 = getelementptr inbounds nuw i8, ptr %4, i64 24
  store i64 %7, ptr %8, align 8, !tbaa !77
  %9 = add nsw i64 %7, 2
  %10 = tail call noundef ptr @_ZN17duckdb_libpgquery6pallocEm(i64 noundef %9)
  %11 = getelementptr inbounds nuw i8, ptr %4, i64 8
  store ptr %10, ptr %11, align 8, !tbaa !71
  %.not14 = icmp eq ptr %10, null
  br i1 %.not14, label %12, label %13

12:                                               ; preds = %6
  tail call fastcc void @_ZN17duckdb_libpgqueryL14yy_fatal_errorEPKcPv(ptr noundef nonnull @.str.27) #20
  unreachable

13:                                               ; preds = %6
  %14 = getelementptr inbounds nuw i8, ptr %4, i64 40
  store i32 1, ptr %14, align 8, !tbaa !78
  %15 = tail call ptr @__errno_location() #21
  %16 = load i32, ptr %15, align 4, !tbaa !48
  %17 = getelementptr inbounds nuw i8, ptr %4, i64 32
  store i64 0, ptr %17, align 8, !tbaa !25
  store i8 0, ptr %10, align 1, !tbaa !32
  %18 = load ptr, ptr %11, align 8, !tbaa !71
  %19 = getelementptr inbounds nuw i8, ptr %18, i64 1
  store i8 0, ptr %19, align 1, !tbaa !32
  %20 = load ptr, ptr %11, align 8, !tbaa !71
  %21 = getelementptr inbounds nuw i8, ptr %4, i64 16
  store ptr %20, ptr %21, align 8, !tbaa !28
  %22 = getelementptr inbounds nuw i8, ptr %4, i64 48
  store i32 1, ptr %22, align 8, !tbaa !84
  %23 = getelementptr inbounds nuw i8, ptr %4, i64 64
  store i32 0, ptr %23, align 8, !tbaa !70
  %24 = getelementptr inbounds nuw i8, ptr %2, i64 40
  %25 = load ptr, ptr %24, align 8, !tbaa !19
  %.not15.i.i = icmp eq ptr %25, null
  br i1 %.not15.i.i, label %.thread.i, label %26

26:                                               ; preds = %13
  %27 = getelementptr inbounds nuw i8, ptr %2, i64 24
  %28 = load i64, ptr %27, align 8, !tbaa !20
  %29 = getelementptr inbounds nuw ptr, ptr %25, i64 %28
  %30 = load ptr, ptr %29, align 8, !tbaa !21
  %31 = icmp eq ptr %4, %30
  br i1 %31, label %.thread, label %.thread.i

.thread:                                          ; preds = %26
  %32 = getelementptr inbounds nuw i8, ptr %30, i64 32
  %33 = load i64, ptr %32, align 8, !tbaa !25
  %34 = getelementptr inbounds nuw i8, ptr %2, i64 56
  store i64 %33, ptr %34, align 8, !tbaa !27
  %35 = getelementptr inbounds nuw i8, ptr %30, i64 16
  %36 = load ptr, ptr %35, align 8, !tbaa !28
  %37 = getelementptr inbounds nuw i8, ptr %2, i64 72
  store ptr %36, ptr %37, align 8, !tbaa !29
  %38 = getelementptr inbounds nuw i8, ptr %2, i64 136
  store ptr %36, ptr %38, align 8, !tbaa !30
  %39 = load ptr, ptr %30, align 8, !tbaa !31
  %40 = getelementptr inbounds nuw i8, ptr %2, i64 8
  store ptr %39, ptr %40, align 8, !tbaa !24
  %41 = load i8, ptr %36, align 1, !tbaa !32
  %42 = getelementptr inbounds nuw i8, ptr %2, i64 48
  store i8 %41, ptr %42, align 8, !tbaa !33
  store ptr %0, ptr %4, align 8, !tbaa !31
  %43 = getelementptr inbounds nuw i8, ptr %4, i64 60
  store i32 1, ptr %43, align 4, !tbaa !75
  br label %_ZN17duckdb_libpgqueryL19core_yy_init_bufferEPNS_15yy_buffer_stateEP8_IO_FILEPv.exit

.thread.i:                                        ; preds = %26, %13
  store ptr %0, ptr %4, align 8, !tbaa !31
  %44 = getelementptr inbounds nuw i8, ptr %4, i64 60
  store i32 1, ptr %44, align 4, !tbaa !75
  %45 = getelementptr inbounds nuw i8, ptr %4, i64 52
  store i32 1, ptr %45, align 4, !tbaa !85
  %46 = getelementptr inbounds nuw i8, ptr %4, i64 56
  store i32 0, ptr %46, align 8, !tbaa !86
  br label %_ZN17duckdb_libpgqueryL19core_yy_init_bufferEPNS_15yy_buffer_stateEP8_IO_FILEPv.exit

_ZN17duckdb_libpgqueryL19core_yy_init_bufferEPNS_15yy_buffer_stateEP8_IO_FILEPv.exit: ; preds = %.thread, %.thread.i
  %47 = getelementptr inbounds nuw i8, ptr %4, i64 44
  store i32 0, ptr %47, align 4, !tbaa !80
  store i32 %16, ptr %15, align 4, !tbaa !48
  ret ptr %4
}